; Function Attrs: mustprogress uwtable
define void @_ZN5arrow8internal6Bitmap8CopyFromERKS1_(ptr noundef nonnull readonly align 8 captures(none) dereferenceable(32) %0, ptr noundef nonnull readonly align 8 captures(none) dereferenceable(32) %1) local_unnamed_addr #1 align 2 {
  %3 = load ptr, ptr %1, align 8, !tbaa !38
  %4 = getelementptr inbounds nuw i8, ptr %1, i64 16
  %5 = load i64, ptr %4, align 8, !tbaa !39
  %6 = getelementptr inbounds nuw i8, ptr %1, i64 24
  %7 = load i64, ptr %6, align 8, !tbaa !32
  %8 = getelementptr inbounds nuw i8, ptr %0, i64 8
  %9 = load ptr, ptr %8, align 8, !tbaa !76
  %10 = getelementptr inbounds nuw i8, ptr %0, i64 16
  %11 = load i64, ptr %10, align 8, !tbaa !39
  tail call void @_ZN5arrow8internal10CopyBitmapEPKhllPhl(ptr noundef %3, i64 noundef %5, i64 noundef %7, ptr noundef %9, i64 noundef %11)
  ret void
}